target datalayout = "e-m:e-p270:32:32-p271:32:32-p272:64:64-i64:64-i128:128-f80:128-n8:16:32:64-S128"
target triple = "x86_64-pc-linux-gnu"

%class.TimeInstant = type { %class.CounterRepresentation }
%class.CounterRepresentation = type { %class.Representation }
%class.Representation = type { i64 }
%class.OSThreadSampler = type { %class.SuspendedThreadTask.base, i8, ptr, %class.JfrStackTrace, ptr, %class.TimeInstant }
%class.SuspendedThreadTask.base = type <{ ptr, ptr, i8 }>
%class.JfrStackTrace = type <{ ptr, ptr, i64, i64, i32, i32, i8, i8, i8, i8, [4 x i8] }>
%class.JfrThreadSampleClosure = type { ptr, ptr, ptr, i32, i32 }
%class.EventExecutionSample = type { %class.JfrEvent.base, i64, i64, i64 }
%class.JfrEvent.base = type <{ i64, i64, i8, i8, i8 }>
%class.SuspendedThreadTask = type <{ ptr, ptr, i8, [7 x i8] }>

@_ZTV15OSThreadSampler = hidden unnamed_addr constant { [3 x ptr] } { [3 x ptr] [ptr null, ptr null, ptr @_ZN15OSThreadSampler7do_taskERK26SuspendedThreadTaskContext] }, align 8
@_ZTV19SuspendedThreadTask = linkonce_odr hidden unnamed_addr constant { [3 x ptr] } { [3 x ptr] [ptr null, ptr null, ptr @__cxa_pure_virtual] }, comdat, align 8

; Function Attrs: mustprogress nounwind uwtable
define linkonce_odr hidden void @_ZN14RepresentationI33FastUnorderedElapsedCounterSourceEC2Ev(ptr noundef nonnull align 8 dereferenceable(8) %0) unnamed_addr #1 comdat align 2 {
  %2 = alloca ptr, align 8
  store ptr %0, ptr %2, align 8
  %3 = load ptr, ptr %2, align 8
  %4 = getelementptr inbounds %class.Representation, ptr %3, i32 0, i32 0
  store i64 0, ptr %4, align 8
  ret void
}

; Function Attrs: mustprogress nounwind uwtable
define linkonce_odr hidden void @_ZN21CounterRepresentationI33FastUnorderedElapsedCounterSourceEC2Ev(ptr noundef nonnull align 8 dereferenceable(8) %0) unnamed_addr #1 comdat align 2 {
  %2 = alloca ptr, align 8
  store ptr %0, ptr %2, align 8
  %3 = load ptr, ptr %2, align 8
  call void @_ZN14RepresentationI33FastUnorderedElapsedCounterSourceEC2Ev(ptr noundef nonnull align 8 dereferenceable(8) %3)
  ret void
}

; Function Attrs: mustprogress nounwind uwtable
define linkonce_odr hidden void @_ZN19SuspendedThreadTaskD2Ev(ptr noundef nonnull align 8 dereferenceable(17) %0) unnamed_addr #1 comdat align 2 {
  %2 = alloca ptr, align 8
  store ptr %0, ptr %2, align 8
  ret void
}

; Function Attrs: mustprogress nounwind uwtable
define linkonce_odr hidden void @_ZN11TimeInstantI21CounterRepresentation33FastUnorderedElapsedCounterSourceEC2Ev(ptr noundef nonnull align 8 dereferenceable(8) %0) unnamed_addr #1 comdat align 2 {
  %2 = alloca ptr, align 8
  store ptr %0, ptr %2, align 8
  %3 = load ptr, ptr %2, align 8
  call void @_ZN21CounterRepresentationI33FastUnorderedElapsedCounterSourceEC2Ev(ptr noundef nonnull align 8 dereferenceable(8) %3)
  ret void
}

; Function Attrs: mustprogress nounwind uwtable
define linkonce_odr hidden void @_ZN19SuspendedThreadTaskC2EP6Thread(ptr noundef nonnull align 8 dereferenceable(17) %0, ptr noundef %1) unnamed_addr #1 comdat align 2 {
  %3 = alloca ptr, align 8
  %4 = alloca ptr, align 8
  store ptr %0, ptr %3, align 8
  store ptr %1, ptr %4, align 8
  %5 = load ptr, ptr %3, align 8
  store ptr getelementptr inbounds inrange(-16, 8) ({ [3 x ptr] }, ptr @_ZTV19SuspendedThreadTask, i32 0, i32 0, i32 2), ptr %5, align 8
  %6 = getelementptr inbounds %class.SuspendedThreadTask, ptr %5, i32 0, i32 1
  %7 = load ptr, ptr %4, align 8
  store ptr %7, ptr %6, align 8
  %8 = getelementptr inbounds %class.SuspendedThreadTask, ptr %5, i32 0, i32 2
  store i8 0, ptr %8, align 8
  ret void
}

; Function Attrs: mustprogress nounwind uwtable
define linkonce_odr hidden void @_ZN15OSThreadSamplerD2Ev(ptr noundef nonnull align 8 dereferenceable(96) %0) unnamed_addr #1 comdat align 2 {
  %2 = alloca ptr, align 8
  store ptr %0, ptr %2, align 8
  %3 = load ptr, ptr %2, align 8
  store ptr getelementptr inbounds inrange(-16, 8) ({ [3 x ptr] }, ptr @_ZTV15OSThreadSampler, i32 0, i32 0, i32 2), ptr %3, align 8
  %4 = getelementptr inbounds %class.OSThreadSampler, ptr %3, i32 0, i32 3
  call void @_ZN13JfrStackTraceD1Ev(ptr noundef nonnull align 8 dereferenceable(44) %4) #7
  call void @_ZN19SuspendedThreadTaskD2Ev(ptr noundef nonnull align 8 dereferenceable(17) %3) #7
  ret void
}

; Function Attrs: mustprogress nounwind uwtable
define linkonce_odr hidden void @_ZN20EventExecutionSample14set_stackTraceEm(ptr noundef nonnull align 8 dereferenceable(48) %0, i64 noundef %1) #1 comdat align 2 {
  %3 = alloca ptr, align 8
  %4 = alloca i64, align 8
  store ptr %0, ptr %3, align 8
  store i64 %1, ptr %4, align 8
  %5 = load ptr, ptr %3, align 8
  %6 = load i64, ptr %4, align 8
  %7 = getelementptr inbounds %class.EventExecutionSample, ptr %5, i32 0, i32 2
  store i64 %6, ptr %7, align 8
  ret void
}

; Function Attrs: mustprogress nounwind uwtable
define linkonce_odr hidden noundef nonnull align 8 dereferenceable(44) ptr @_ZNK15OSThreadSampler10stacktraceEv(ptr noundef nonnull align 8 dereferenceable(96) %0) #1 comdat align 2 {
  %2 = alloca ptr, align 8
  store ptr %0, ptr %2, align 8
  %3 = load ptr, ptr %2, align 8
  %4 = getelementptr inbounds %class.OSThreadSampler, ptr %3, i32 0, i32 3
  ret ptr %4
}

; Function Attrs: mustprogress nounwind uwtable
define linkonce_odr hidden noundef zeroext i1 @_ZNK15OSThreadSampler7successEv(ptr noundef nonnull align 8 dereferenceable(96) %0) #1 comdat align 2 {
  %2 = alloca ptr, align 8
  store ptr %0, ptr %2, align 8
  %3 = load ptr, ptr %2, align 8
  %4 = getelementptr inbounds %class.OSThreadSampler, ptr %3, i32 0, i32 1
  %5 = load i8, ptr %4, align 1
  %6 = trunc i8 %5 to i1
  ret i1 %6
}

; Function Attrs: mustprogress nounwind uwtable
define hidden void @_ZN15OSThreadSampler11take_sampleEv(ptr noundef nonnull align 8 dereferenceable(96) %0) #1 align 2 {
  %2 = alloca ptr, align 8
  store ptr %0, ptr %2, align 8
  %3 = load ptr, ptr %2, align 8
  call void @_ZN19SuspendedThreadTask3runEv(ptr noundef nonnull align 8 dereferenceable(17) %3)
  ret void
}

; Function Attrs: mustprogress nounwind uwtable
define linkonce_odr hidden void @_ZN15OSThreadSamplerC2EP10JavaThreadR22JfrThreadSampleClosureP13JfrStackFramej(ptr noundef nonnull align 8 dereferenceable(96) %0, ptr noundef %1, ptr noundef nonnull align 8 dereferenceable(32) %2, ptr noundef %3, i32 noundef %4) unnamed_addr #1 comdat align 2 {
  %6 = alloca ptr, align 8
  %7 = alloca ptr, align 8
  %8 = alloca ptr, align 8
  %9 = alloca ptr, align 8
  %10 = alloca i32, align 4
  store ptr %0, ptr %6, align 8
  store ptr %1, ptr %7, align 8
  store ptr %2, ptr %8, align 8
  store ptr %3, ptr %9, align 8
  store i32 %4, ptr %10, align 4
  %11 = load ptr, ptr %6, align 8
  %12 = load ptr, ptr %7, align 8
  call void @_ZN19SuspendedThreadTaskC2EP6Thread(ptr noundef nonnull align 8 dereferenceable(17) %11, ptr noundef %12)
  store ptr getelementptr inbounds inrange(-16, 8) ({ [3 x ptr] }, ptr @_ZTV15OSThreadSampler, i32 0, i32 0, i32 2), ptr %11, align 8
  %13 = getelementptr inbounds %class.OSThreadSampler, ptr %11, i32 0, i32 1
  store i8 0, ptr %13, align 1
  %14 = getelementptr inbounds %class.OSThreadSampler, ptr %11, i32 0, i32 2
  %15 = load ptr, ptr %7, align 8
  %16 = call noundef ptr @_ZNK10JavaThread9threadObjEv(ptr noundef nonnull align 8 dereferenceable(1800) %15)
  store ptr %16, ptr %14, align 8
  %17 = getelementptr inbounds %class.OSThreadSampler, ptr %11, i32 0, i32 3
  %18 = load ptr, ptr %9, align 8
  %19 = load i32, ptr %10, align 4
  call void @_ZN13JfrStackTraceC1EP13JfrStackFramej(ptr noundef nonnull align 8 dereferenceable(44) %17, ptr noundef %18, i32 noundef %19)
  %20 = getelementptr inbounds %class.OSThreadSampler, ptr %11, i32 0, i32 4
  %21 = load ptr, ptr %8, align 8
  store ptr %21, ptr %20, align 8
  %22 = getelementptr inbounds %class.OSThreadSampler, ptr %11, i32 0, i32 5
  call void @_ZN11TimeInstantI21CounterRepresentation33FastUnorderedElapsedCounterSourceEC2Ev(ptr noundef nonnull align 8 dereferenceable(8) %22)
  ret void
}

; Function Attrs: mustprogress nounwind uwtable
define hidden noundef zeroext i1 @_ZN22JfrThreadSampleClosure21sample_thread_in_javaEP10JavaThreadP13JfrStackFramej(ptr noundef nonnull align 8 dereferenceable(32) %0, ptr noundef %1, ptr noundef %2, i32 noundef %3) #1 align 2 {
  %5 = alloca i1, align 1
  %6 = alloca ptr, align 8
  %7 = alloca ptr, align 8
  %8 = alloca ptr, align 8
  %9 = alloca i32, align 4
  %10 = alloca %class.OSThreadSampler, align 8
  %11 = alloca i32, align 4
  %12 = alloca ptr, align 8
  %13 = alloca i64, align 8
  store ptr %0, ptr %6, align 8
  store ptr %1, ptr %7, align 8
  store ptr %2, ptr %8, align 8
  store i32 %3, ptr %9, align 4
  %14 = load ptr, ptr %6, align 8
  %15 = load ptr, ptr %7, align 8
  call void @_ZN17StackWatermarkSet16start_processingEP10JavaThread18StackWatermarkKind(ptr noundef %15, i32 noundef 0)
  %16 = load ptr, ptr %7, align 8
  %17 = load ptr, ptr %8, align 8
  %18 = load i32, ptr %9, align 4
  call void @_ZN15OSThreadSamplerC2EP10JavaThreadR22JfrThreadSampleClosureP13JfrStackFramej(ptr noundef nonnull align 8 dereferenceable(96) %10, ptr noundef %16, ptr noundef nonnull align 8 dereferenceable(32) %14, ptr noundef %17, i32 noundef %18)
  call void @_ZN15OSThreadSampler11take_sampleEv(ptr noundef nonnull align 8 dereferenceable(96) %10)
  %19 = call noundef zeroext i1 @_ZNK15OSThreadSampler7successEv(ptr noundef nonnull align 8 dereferenceable(96) %10)
  br i1 %19, label %21, label %20

20:                                               ; preds = %4
  store i1 false, ptr %5, align 1
  store i32 1, ptr %11, align 4
  br label %33

21:                                               ; preds = %4
  %22 = getelementptr inbounds %class.JfrThreadSampleClosure, ptr %14, i32 0, i32 0
  %23 = load ptr, ptr %22, align 8
  %24 = getelementptr inbounds %class.JfrThreadSampleClosure, ptr %14, i32 0, i32 3
  %25 = load i32, ptr %24, align 8
  %26 = sub i32 %25, 1
  %27 = zext i32 %26 to i64
  %28 = getelementptr inbounds %class.EventExecutionSample, ptr %23, i64 %27
  store ptr %28, ptr %12, align 8
  %29 = call noundef nonnull align 8 dereferenceable(44) ptr @_ZNK15OSThreadSampler10stacktraceEv(ptr noundef nonnull align 8 dereferenceable(96) %10)
  %30 = call noundef i64 @_ZN23JfrStackTraceRepository3addERK13JfrStackTrace(ptr noundef nonnull align 8 dereferenceable(44) %29)
  store i64 %30, ptr %13, align 8
  %31 = load ptr, ptr %12, align 8
  %32 = load i64, ptr %13, align 8
  call void @_ZN20EventExecutionSample14set_stackTraceEm(ptr noundef nonnull align 8 dereferenceable(48) %31, i64 noundef %32)
  store i1 true, ptr %5, align 1
  store i32 1, ptr %11, align 4
  br label %33

33:                                               ; preds = %21, %20
  call void @_ZN15OSThreadSamplerD2Ev(ptr noundef nonnull align 8 dereferenceable(96) %10) #7
  %34 = load i1, ptr %5, align 1
  ret i1 %34
}