; Function Attrs: mustprogress nounwind uwtable
define hidden noundef zeroext i1 @_ZN22JfrThreadSampleClosure21sample_thread_in_javaEP10JavaThreadP13JfrStackFramej(ptr noundef nonnull align 8 dereferenceable(32) %0, ptr noundef %1, ptr noundef %2, i32 noundef %3) local_unnamed_addr #0 align 2 {
  %5 = alloca %class.OSThreadSampler, align 8
  tail call void @_ZN17StackWatermarkSet16start_processingEP10JavaThread18StackWatermarkKind(ptr noundef %1, i32 noundef 0) #18
  %6 = getelementptr inbounds i8, ptr %5, i64 8
  store ptr %1, ptr %6, align 8
  %7 = getelementptr inbounds i8, ptr %5, i64 16
  store i8 0, ptr %7, align 8
  store ptr getelementptr inbounds inrange(-16, 8) (i8, ptr @_ZTV15OSThreadSampler, i64 16), ptr %5, align 8
  %8 = getelementptr inbounds i8, ptr %5, i64 17
  store i8 0, ptr %8, align 1
  %9 = getelementptr inbounds i8, ptr %5, i64 24
  %10 = tail call noundef ptr @_ZNK10JavaThread9threadObjEv(ptr noundef nonnull align 8 dereferenceable(1800) %1) #18
  store ptr %10, ptr %9, align 8
  %11 = getelementptr inbounds i8, ptr %5, i64 32
  call void @_ZN13JfrStackTraceC1EP13JfrStackFramej(ptr noundef nonnull align 8 dereferenceable(44) %11, ptr noundef %2, i32 noundef %3) #18
  %12 = getelementptr inbounds i8, ptr %5, i64 80
  store ptr %0, ptr %12, align 8
  %13 = getelementptr inbounds i8, ptr %5, i64 88
  store i64 0, ptr %13, align 8
  call void @_ZN19SuspendedThreadTask3runEv(ptr noundef nonnull align 8 dereferenceable(17) %5) #18
  %14 = load i8, ptr %8, align 1
  %15 = trunc i8 %14 to i1
  br i1 %15, label %16, label %24

16:                                               ; preds = %4
  %17 = load ptr, ptr %0, align 8
  %18 = getelementptr inbounds i8, ptr %0, i64 24
  %19 = load i32, ptr %18, align 8
  %20 = add i32 %19, -1
  %21 = zext i32 %20 to i64
  %22 = call noundef i64 @_ZN23JfrStackTraceRepository3addERK13JfrStackTrace(ptr noundef nonnull align 8 dereferenceable(44) %11) #18
  %23 = getelementptr inbounds %class.EventExecutionSample, ptr %17, i64 %21, i32 2
  store i64 %22, ptr %23, align 8
  br label %24

24:                                               ; preds = %4, %16
  store ptr getelementptr inbounds inrange(-16, 8) (i8, ptr @_ZTV15OSThreadSampler, i64 16), ptr %5, align 8
  call void @_ZN13JfrStackTraceD1Ev(ptr noundef nonnull align 8 dereferenceable(44) %11) #18
  ret i1 %15
}